; ModuleID = '22/954.c'
source_filename = "22/954.c"
target datalayout = "e-m:e-p270:32:32-p271:32:32-p272:64:64-i64:64-f80:128-n8:16:32:64-S128"
target triple = "x86_64-pc-linux-gnu"

@.str = private unnamed_addr constant [3 x i8] c"%d\00", align 1
@.str.1 = private unnamed_addr constant [3 x i8] c"%c\00", align 1
@.str.2 = private unnamed_addr constant [3 x i8] c"No\00", align 1

; Function Attrs: noinline nounwind uwtable
define dso_local i32 @main() #0 {
  %1 = alloca i32, align 4
  %2 = alloca [300 x i32], align 16
  %3 = alloca [300 x i32], align 16
  %4 = alloca i32, align 4
  %5 = alloca i32, align 4
  %6 = alloca i32, align 4
  %7 = alloca i32, align 4
  %8 = alloca i32, align 4
  %9 = alloca i32, align 4
  store i32 0, i32* %1, align 4
  store i32 0, i32* %8, align 4
  %10 = getelementptr inbounds [300 x i32], [300 x i32]* %2, i64 0, i64 0
  %11 = call i32 (i8*, ...) @__isoc99_scanf(i8* getelementptr inbounds ([3 x i8], [3 x i8]* @.str, i64 0, i64 0), i32* %10)
  %12 = getelementptr inbounds [300 x i32], [300 x i32]* %3, i64 0, i64 0
  store i32 44, i32* %12, align 16
  %13 = getelementptr inbounds [300 x i32], [300 x i32]* %2, i64 0, i64 1
  store i32 -1, i32* %13, align 4
  store i32 1, i32* %5, align 4
  br label %14

14:                                               ; preds = %38, %0
  %15 = load i32, i32* %5, align 4
  %16 = sub nsw i32 %15, 1
  %17 = sext i32 %16 to i64
  %18 = getelementptr inbounds [300 x i32], [300 x i32]* %3, i64 0, i64 %17
  %19 = load i32, i32* %18, align 4
  %20 = icmp ne i32 %19, 0
  br i1 %20, label %21, label %33

21:                                               ; preds = %14
  %22 = load i32, i32* %5, align 4
  %23 = sext i32 %22 to i64
  %24 = getelementptr inbounds [300 x i32], [300 x i32]* %3, i64 0, i64 %23
  %25 = call i32 (i8*, ...) @__isoc99_scanf(i8* getelementptr inbounds ([3 x i8], [3 x i8]* @.str.1, i64 0, i64 0), i32* %24)
  %26 = icmp ne i32 %25, -1
  br i1 %26, label %27, label %33

27:                                               ; preds = %21
  %28 = load i32, i32* %5, align 4
  %29 = sext i32 %28 to i64
  %30 = getelementptr inbounds [300 x i32], [300 x i32]* %2, i64 0, i64 %29
  %31 = call i32 (i8*, ...) @__isoc99_scanf(i8* getelementptr inbounds ([3 x i8], [3 x i8]* @.str, i64 0, i64 0), i32* %30)
  %32 = icmp ne i32 %31, -1
  br label %33

33:                                               ; preds = %27, %21, %14
  %34 = phi i1 [ false, %21 ], [ false, %14 ], [ %32, %27 ]
  br i1 %34, label %35, label %41

35:                                               ; preds = %33
  %36 = load i32, i32* %8, align 4
  %37 = add nsw i32 %36, 1
  store i32 %37, i32* %8, align 4
  br label %38

38:                                               ; preds = %35
  %39 = load i32, i32* %5, align 4
  %40 = add nsw i32 %39, 1
  store i32 %40, i32* %5, align 4
  br label %14

41:                                               ; preds = %33
  store i32 0, i32* %5, align 4
  br label %42

42:                                               ; preds = %83, %41
  %43 = load i32, i32* %5, align 4
  %44 = load i32, i32* %8, align 4
  %45 = icmp sle i32 %43, %44
  br i1 %45, label %46, label %86

46:                                               ; preds = %42
  %47 = load i32, i32* %5, align 4
  store i32 %47, i32* %6, align 4
  br label %48

48:                                               ; preds = %79, %46
  %49 = load i32, i32* %6, align 4
  %50 = load i32, i32* %8, align 4
  %51 = icmp sle i32 %49, %50
  br i1 %51, label %52, label %82

52:                                               ; preds = %48
  %53 = load i32, i32* %5, align 4
  %54 = sext i32 %53 to i64
  %55 = getelementptr inbounds [300 x i32], [300 x i32]* %2, i64 0, i64 %54
  %56 = load i32, i32* %55, align 4
  %57 = load i32, i32* %6, align 4
  %58 = sext i32 %57 to i64
  %59 = getelementptr inbounds [300 x i32], [300 x i32]* %2, i64 0, i64 %58
  %60 = load i32, i32* %59, align 4
  %61 = icmp sge i32 %56, %60
  br i1 %61, label %62, label %78

62:                                               ; preds = %52
  %63 = load i32, i32* %5, align 4
  %64 = sext i32 %63 to i64
  %65 = getelementptr inbounds [300 x i32], [300 x i32]* %2, i64 0, i64 %64
  %66 = load i32, i32* %65, align 4
  store i32 %66, i32* %4, align 4
  %67 = load i32, i32* %6, align 4
  %68 = sext i32 %67 to i64
  %69 = getelementptr inbounds [300 x i32], [300 x i32]* %2, i64 0, i64 %68
  %70 = load i32, i32* %69, align 4
  %71 = load i32, i32* %5, align 4
  %72 = sext i32 %71 to i64
  %73 = getelementptr inbounds [300 x i32], [300 x i32]* %2, i64 0, i64 %72
  store i32 %70, i32* %73, align 4
  %74 = load i32, i32* %4, align 4
  %75 = load i32, i32* %6, align 4
  %76 = sext i32 %75 to i64
  %77 = getelementptr inbounds [300 x i32], [300 x i32]* %2, i64 0, i64 %76
  store i32 %74, i32* %77, align 4
  br label %78

78:                                               ; preds = %62, %52
  br label %79

79:                                               ; preds = %78
  %80 = load i32, i32* %6, align 4
  %81 = add nsw i32 %80, 1
  store i32 %81, i32* %6, align 4
  br label %48

82:                                               ; preds = %48
  br label %83

83:                                               ; preds = %82
  %84 = load i32, i32* %5, align 4
  %85 = add nsw i32 %84, 1
  store i32 %85, i32* %5, align 4
  br label %42

86:                                               ; preds = %42
  %87 = load i32, i32* %8, align 4
  store i32 %87, i32* %5, align 4
  br label %88

88:                                               ; preds = %107, %86
  %89 = load i32, i32* %5, align 4
  %90 = icmp sge i32 %89, 0
  br i1 %90, label %91, label %110

91:                                               ; preds = %88
  %92 = load i32, i32* %5, align 4
  %93 = sext i32 %92 to i64
  %94 = getelementptr inbounds [300 x i32], [300 x i32]* %2, i64 0, i64 %93
  %95 = load i32, i32* %94, align 4
  %96 = load i32, i32* %8, align 4
  %97 = sext i32 %96 to i64
  %98 = getelementptr inbounds [300 x i32], [300 x i32]* %2, i64 0, i64 %97
  %99 = load i32, i32* %98, align 4
  %100 = icmp ne i32 %95, %99
  br i1 %100, label %101, label %106

101:                                              ; preds = %91
  %102 = load i32, i32* %5, align 4
  %103 = sext i32 %102 to i64
  %104 = getelementptr inbounds [300 x i32], [300 x i32]* %2, i64 0, i64 %103
  %105 = load i32, i32* %104, align 4
  store i32 %105, i32* %9, align 4
  br label %110

106:                                              ; preds = %91
  br label %107

107:                                              ; preds = %106
  %108 = load i32, i32* %5, align 4
  %109 = add nsw i32 %108, -1
  store i32 %109, i32* %5, align 4
  br label %88

110:                                              ; preds = %101, %88
  %111 = getelementptr inbounds [300 x i32], [300 x i32]* %2, i64 0, i64 0
  %112 = load i32, i32* %111, align 16
  %113 = load i32, i32* %8, align 4
  %114 = sext i32 %113 to i64
  %115 = getelementptr inbounds [300 x i32], [300 x i32]* %2, i64 0, i64 %114
  %116 = load i32, i32* %115, align 4
  %117 = icmp eq i32 %112, %116
  br i1 %117, label %122, label %118

118:                                              ; preds = %110
  %119 = getelementptr inbounds [300 x i32], [300 x i32]* %2, i64 0, i64 1
  %120 = load i32, i32* %119, align 4
  %121 = icmp eq i32 %120, -1
  br i1 %121, label %122, label %124

122:                                              ; preds = %118, %110
  %123 = call i32 (i8*, ...) @printf(i8* getelementptr inbounds ([3 x i8], [3 x i8]* @.str.2, i64 0, i64 0))
  br label %127

124:                                              ; preds = %118
  %125 = load i32, i32* %9, align 4
  %126 = call i32 (i8*, ...) @printf(i8* getelementptr inbounds ([3 x i8], [3 x i8]* @.str, i64 0, i64 0), i32 %125)
  br label %127

127:                                              ; preds = %124, %122
  %128 = load i32, i32* %1, align 4
  ret i32 %128
}

declare dso_local i32 @__isoc99_scanf(i8*, ...) #1

declare dso_local i32 @printf(i8*, ...) #1


!llvm.module.flags = !{!0}
!llvm.ident = !{!1}

!0 = !{i32 1, !"wchar_size", i32 4}
!1 = !{!"clang version 10.0.0-4ubuntu1 "}
